; Function Attrs: mustprogress uwtable
define void @_ZN13RichParameter8setValueERK5Valueb(ptr nocapture noundef nonnull align 8 dereferenceable(56) %0, ptr noundef nonnull align 8 dereferenceable(8) %1, i1 noundef zeroext %2) local_unnamed_addr #1 align 2 {
  %4 = getelementptr inbounds i8, ptr %0, i64 16
  %5 = load ptr, ptr %4, align 8
  %6 = icmp eq ptr %5, null
  br i1 %6, label %11, label %7

7:                                                ; preds = %3
  %8 = load ptr, ptr %5, align 8
  %9 = getelementptr inbounds i8, ptr %8, i64 8
  %10 = load ptr, ptr %9, align 8
  tail call void %10(ptr noundef nonnull align 8 dereferenceable(8) %5) #21
  br label %11

11:                                               ; preds = %7, %3
  %12 = zext i1 %2 to i8
  %13 = load ptr, ptr %1, align 8
  %14 = getelementptr inbounds i8, ptr %13, i64 160
  %15 = load ptr, ptr %14, align 8
  %16 = tail call noundef ptr %15(ptr noundef nonnull align 8 dereferenceable(8) %1)
  store ptr %16, ptr %4, align 8
  %17 = getelementptr inbounds i8, ptr %0, i64 41
  store i8 %12, ptr %17, align 1
  ret void
}